; Function Attrs: nounwind uwtable
define ptr @cli_mpool_hex2str(ptr noundef %0, ptr noundef %1) local_unnamed_addr #0 {
  %3 = tail call i64 @strlen(ptr noundef nonnull dereferenceable(1) %1) #11
  %4 = and i64 %3, 1
  %.not = icmp eq i64 %4, 0
  br i1 %.not, label %6, label %5

5:                                                ; preds = %2
  tail call void (ptr, ...) @cli_errmsg(ptr noundef nonnull @.str.13, ptr noundef %1, i64 noundef %3) #10
  br label %28

6:                                                ; preds = %2
  %7 = lshr exact i64 %3, 1
  %8 = add nuw i64 %7, 1
  %9 = tail call ptr @mpool_malloc(ptr noundef %0, i64 noundef %8)
  %10 = icmp eq ptr %9, null
  br i1 %10, label %11, label %12

11:                                               ; preds = %6
  tail call void (ptr, ...) @cli_errmsg(ptr noundef nonnull @.str.14, i64 noundef %8) #10
  br label %28

12:                                               ; preds = %6
  %13 = tail call i32 @cli_hex2str_to(ptr noundef %1, ptr noundef nonnull %9, i64 noundef %3) #10
  %14 = icmp eq i32 %13, -1
  br i1 %14, label %mpool_free.exit, label %26

mpool_free.exit:                                  ; preds = %12
  %15 = getelementptr inbounds i8, ptr %9, i64 -2
  %16 = getelementptr inbounds i8, ptr %9, i64 -1
  %17 = load i8, ptr %16, align 1
  %18 = load i8, ptr %15, align 1
  %19 = zext i8 %18 to i64
  %20 = sub nsw i64 0, %19
  %21 = getelementptr inbounds i8, ptr %15, i64 %20
  %22 = getelementptr inbounds i8, ptr %0, i64 8
  %23 = zext i8 %17 to i64
  %24 = getelementptr inbounds [100 x ptr], ptr %22, i64 0, i64 %23
  %25 = load ptr, ptr %24, align 8
  store ptr %25, ptr %21, align 1
  store ptr %21, ptr %24, align 8
  br label %28

26:                                               ; preds = %12
  %27 = getelementptr inbounds i8, ptr %9, i64 %7
  store i8 0, ptr %27, align 1
  br label %28

28:                                               ; preds = %26, %mpool_free.exit, %11, %5
  %.0 = phi ptr [ null, %5 ], [ null, %11 ], [ null, %mpool_free.exit ], [ %9, %26 ]
  ret ptr %.0
}